
test.exe:     file format pei-x86-64


Disassembly of section .text:

0000000100401000 <WinMainCRTStartup>:
   100401000:	48 83 ec 28          	sub    $0x28,%rsp
   100401004:	48 8d 0d 75 00 00 00 	lea    0x75(%rip),%rcx        # 100401080 <main>
   10040100b:	e8 b0 00 00 00       	call   1004010c0 <cygwin_crt0>
   100401010:	45 31 c0             	xor    %r8d,%r8d
   100401013:	31 d2                	xor    %edx,%edx
   100401015:	31 c9                	xor    %ecx,%ecx
   100401017:	e8 c4 00 00 00       	call   1004010e0 <cygwin_premain0>
   10040101c:	45 31 c0             	xor    %r8d,%r8d
   10040101f:	31 d2                	xor    %edx,%edx
   100401021:	31 c9                	xor    %ecx,%ecx
   100401023:	e8 c8 00 00 00       	call   1004010f0 <cygwin_premain1>
   100401028:	45 31 c0             	xor    %r8d,%r8d
   10040102b:	31 d2                	xor    %edx,%edx
   10040102d:	31 c9                	xor    %ecx,%ecx
   10040102f:	e8 cc 00 00 00       	call   100401100 <cygwin_premain2>
   100401034:	45 31 c0             	xor    %r8d,%r8d
   100401037:	31 d2                	xor    %edx,%edx
   100401039:	31 c9                	xor    %ecx,%ecx
   10040103b:	48 83 c4 28          	add    $0x28,%rsp
   10040103f:	e9 cc 00 00 00       	jmp    100401110 <cygwin_premain3>
   100401044:	90                   	nop
   100401045:	90                   	nop
   100401046:	90                   	nop
   100401047:	90                   	nop
   100401048:	90                   	nop
   100401049:	90                   	nop
   10040104a:	90                   	nop
   10040104b:	90                   	nop
   10040104c:	90                   	nop
   10040104d:	90                   	nop
   10040104e:	90                   	nop
   10040104f:	90                   	nop

0000000100401050 <__gcc_register_frame>:
   100401050:	4c 8d 05 a9 0f 00 00 	lea    0xfa9(%rip),%r8        # 100402000 <__data_start__>
   100401057:	31 d2                	xor    %edx,%edx
   100401059:	48 8d 0d 10 00 00 00 	lea    0x10(%rip),%rcx        # 100401070 <__gcc_deregister_frame>
   100401060:	e9 3b 00 00 00       	jmp    1004010a0 <__cxa_atexit>
   100401065:	66 66 2e 0f 1f 84 00 	data16 cs nopw 0x0(%rax,%rax,1)
   10040106c:	00 00 00 00 

0000000100401070 <__gcc_deregister_frame>:
   100401070:	c3                   	ret
   100401071:	90                   	nop
   100401072:	90                   	nop
   100401073:	90                   	nop
   100401074:	90                   	nop
   100401075:	90                   	nop
   100401076:	90                   	nop
   100401077:	90                   	nop
   100401078:	90                   	nop
   100401079:	90                   	nop
   10040107a:	90                   	nop
   10040107b:	90                   	nop
   10040107c:	90                   	nop
   10040107d:	90                   	nop
   10040107e:	90                   	nop
   10040107f:	90                   	nop

0000000100401080 <main>:
   100401080:	48 83 ec 28          	sub    $0x28,%rsp
   100401084:	e8 27 00 00 00       	call   1004010b0 <__main>
   100401089:	b8 00 00 00 00       	mov    $0x0,%eax
   10040108e:	48 83 c4 28          	add    $0x28,%rsp
   100401092:	c3                   	ret

0000000100401093 <test_one>:
   100401093:	c6 01 00             	movb   $0x0,(%rcx)
   100401096:	c3                   	ret

0000000100401097 <test_two>:
   100401097:	c7 01 00 00 00 00    	movl   $0x0,(%rcx)
   10040109d:	c3                   	ret
   10040109e:	90                   	nop
   10040109f:	90                   	nop

00000001004010a0 <__cxa_atexit>:
   1004010a0:	ff 25 12 70 00 00    	jmp    *0x7012(%rip)        # 1004080b8 <__IAT_start__>
   1004010a6:	90                   	nop
   1004010a7:	90                   	nop
   1004010a8:	90                   	nop
   1004010a9:	90                   	nop
   1004010aa:	90                   	nop
   1004010ab:	90                   	nop
   1004010ac:	90                   	nop
   1004010ad:	90                   	nop
   1004010ae:	90                   	nop
   1004010af:	90                   	nop

00000001004010b0 <__main>:
   1004010b0:	ff 25 0a 70 00 00    	jmp    *0x700a(%rip)        # 1004080c0 <__imp___main>
   1004010b6:	90                   	nop
   1004010b7:	90                   	nop
   1004010b8:	90                   	nop
   1004010b9:	90                   	nop
   1004010ba:	90                   	nop
   1004010bb:	90                   	nop
   1004010bc:	90                   	nop
   1004010bd:	90                   	nop
   1004010be:	90                   	nop
   1004010bf:	90                   	nop

00000001004010c0 <cygwin_crt0>:
   1004010c0:	48 83 ec 28          	sub    $0x28,%rsp
   1004010c4:	31 d2                	xor    %edx,%edx
   1004010c6:	e8 55 00 00 00       	call   100401120 <_cygwin_crt0_common>
   1004010cb:	ff 15 f7 6f 00 00    	call   *0x6ff7(%rip)        # 1004080c8 <__imp__dll_crt0>
   1004010d1:	90                   	nop
   1004010d2:	90                   	nop
   1004010d3:	90                   	nop
   1004010d4:	90                   	nop
   1004010d5:	90                   	nop
   1004010d6:	90                   	nop
   1004010d7:	90                   	nop
   1004010d8:	90                   	nop
   1004010d9:	90                   	nop
   1004010da:	90                   	nop
   1004010db:	90                   	nop
   1004010dc:	90                   	nop
   1004010dd:	90                   	nop
   1004010de:	90                   	nop
   1004010df:	90                   	nop

00000001004010e0 <cygwin_premain0>:
   1004010e0:	c3                   	ret
   1004010e1:	90                   	nop
   1004010e2:	90                   	nop
   1004010e3:	90                   	nop
   1004010e4:	90                   	nop
   1004010e5:	90                   	nop
   1004010e6:	90                   	nop
   1004010e7:	90                   	nop
   1004010e8:	90                   	nop
   1004010e9:	90                   	nop
   1004010ea:	90                   	nop
   1004010eb:	90                   	nop
   1004010ec:	90                   	nop
   1004010ed:	90                   	nop
   1004010ee:	90                   	nop
   1004010ef:	90                   	nop

00000001004010f0 <cygwin_premain1>:
   1004010f0:	c3                   	ret
   1004010f1:	90                   	nop
   1004010f2:	90                   	nop
   1004010f3:	90                   	nop
   1004010f4:	90                   	nop
   1004010f5:	90                   	nop
   1004010f6:	90                   	nop
   1004010f7:	90                   	nop
   1004010f8:	90                   	nop
   1004010f9:	90                   	nop
   1004010fa:	90                   	nop
   1004010fb:	90                   	nop
   1004010fc:	90                   	nop
   1004010fd:	90                   	nop
   1004010fe:	90                   	nop
   1004010ff:	90                   	nop

0000000100401100 <cygwin_premain2>:
   100401100:	c3                   	ret
   100401101:	90                   	nop
   100401102:	90                   	nop
   100401103:	90                   	nop
   100401104:	90                   	nop
   100401105:	90                   	nop
   100401106:	90                   	nop
   100401107:	90                   	nop
   100401108:	90                   	nop
   100401109:	90                   	nop
   10040110a:	90                   	nop
   10040110b:	90                   	nop
   10040110c:	90                   	nop
   10040110d:	90                   	nop
   10040110e:	90                   	nop
   10040110f:	90                   	nop

0000000100401110 <cygwin_premain3>:
   100401110:	c3                   	ret
   100401111:	90                   	nop
   100401112:	90                   	nop
   100401113:	90                   	nop
   100401114:	90                   	nop
   100401115:	90                   	nop
   100401116:	90                   	nop
   100401117:	90                   	nop
   100401118:	90                   	nop
   100401119:	90                   	nop
   10040111a:	90                   	nop
   10040111b:	90                   	nop
   10040111c:	90                   	nop
   10040111d:	90                   	nop
   10040111e:	90                   	nop
   10040111f:	90                   	nop

0000000100401120 <_cygwin_crt0_common>:
   100401120:	56                   	push   %rsi
   100401121:	53                   	push   %rbx
   100401122:	48 83 ec 28          	sub    $0x28,%rsp
   100401126:	48 89 ce             	mov    %rcx,%rsi
   100401129:	48 89 d3             	mov    %rdx,%rbx
   10040112c:	b9 08 00 00 00       	mov    $0x8,%ecx
   100401131:	e8 ca 04 00 00       	call   100401600 <cygwin_internal>
   100401136:	48 85 db             	test   %rbx,%rbx
   100401139:	0f 84 34 02 00 00    	je     100401373 <_cygwin_crt0_common+0x253>
   10040113f:	48 ba 00 00 00 00 5e 	movabs $0x15e00000000,%rdx
   100401146:	01 00 00 
   100401149:	48 89 93 f0 00 00 00 	mov    %rdx,0xf0(%rbx)
   100401150:	48 8d 0d 59 05 00 00 	lea    0x559(%rip),%rcx        # 1004016b0 <__CTOR_LIST__>
   100401157:	48 89 4b 48          	mov    %rcx,0x48(%rbx)
   10040115b:	48 8d 15 66 05 00 00 	lea    0x566(%rip),%rdx        # 1004016c8 <__DTOR_LIST__>
   100401162:	48 89 53 50          	mov    %rdx,0x50(%rbx)
   100401166:	48 8b 15 63 6f 00 00 	mov    0x6f63(%rip),%rdx        # 1004080d0 <__imp__impure_ptr>
   10040116d:	48 89 53 18          	mov    %rdx,0x18(%rbx)
   100401171:	48 89 73 40          	mov    %rsi,0x40(%rbx)
   100401175:	48 8d 35 64 ff ff ff 	lea    -0x9c(%rip),%rsi        # 1004010e0 <cygwin_premain0>
   10040117c:	48 89 b3 80 00 00 00 	mov    %rsi,0x80(%rbx)
   100401183:	48 8d 35 66 ff ff ff 	lea    -0x9a(%rip),%rsi        # 1004010f0 <cygwin_premain1>
   10040118a:	48 89 b3 88 00 00 00 	mov    %rsi,0x88(%rbx)
   100401191:	48 8d 0d 68 ff ff ff 	lea    -0x98(%rip),%rcx        # 100401100 <cygwin_premain2>
   100401198:	48 89 8b 90 00 00 00 	mov    %rcx,0x90(%rbx)
   10040119f:	48 8d 35 6a ff ff ff 	lea    -0x96(%rip),%rsi        # 100401110 <cygwin_premain3>
   1004011a6:	48 89 b3 98 00 00 00 	mov    %rsi,0x98(%rbx)
   1004011ad:	48 8d 15 4c 5e 00 00 	lea    0x5e4c(%rip),%rdx        # 100407000 <__bss_start__>
   1004011b4:	48 89 53 38          	mov    %rdx,0x38(%rbx)
   1004011b8:	48 c7 03 00 00 00 00 	movq   $0x0,(%rbx)
   1004011bf:	48 b9 48 01 00 00 bd 	movabs $0xbbd00000148,%rcx
   1004011c6:	0b 00 00 
   1004011c9:	48 89 4b 08          	mov    %rcx,0x8(%rbx)
   1004011cd:	c7 43 10 04 00 00 00 	movl   $0x4,0x10(%rbx)
   1004011d4:	48 8d 35 45 04 00 00 	lea    0x445(%rip),%rsi        # 100401620 <malloc>
   1004011db:	48 89 73 20          	mov    %rsi,0x20(%rbx)
   1004011df:	48 8d 15 2a 04 00 00 	lea    0x42a(%rip),%rdx        # 100401610 <free>
   1004011e6:	48 89 53 28          	mov    %rdx,0x28(%rbx)
   1004011ea:	48 8d 0d 4f 04 00 00 	lea    0x44f(%rip),%rcx        # 100401640 <realloc>
   1004011f1:	48 89 4b 30          	mov    %rcx,0x30(%rbx)
   1004011f5:	48 8d 35 e4 03 00 00 	lea    0x3e4(%rip),%rsi        # 1004015e0 <calloc>
   1004011fc:	48 89 73 78          	mov    %rsi,0x78(%rbx)
   100401200:	48 8d 15 29 04 00 00 	lea    0x429(%rip),%rdx        # 100401630 <posix_memalign>
   100401207:	48 89 93 18 01 00 00 	mov    %rdx,0x118(%rbx)
   10040120e:	48 85 c0             	test   %rax,%rax
   100401211:	0f 84 e5 00 00 00    	je     1004012fc <_cygwin_crt0_common+0x1dc>
   100401217:	48 8b 80 e0 00 00 00 	mov    0xe0(%rax),%rax
   10040121e:	48 85 c0             	test   %rax,%rax
   100401221:	0f 84 d5 00 00 00    	je     1004012fc <_cygwin_crt0_common+0x1dc>
   100401227:	8b 15 e3 5d 00 00    	mov    0x5de3(%rip),%edx        # 100407010 <__dynamically_loaded>
   10040122d:	85 d2                	test   %edx,%edx
   10040122f:	0f 85 c7 00 00 00    	jne    1004012fc <_cygwin_crt0_common+0x1dc>
   100401235:	48 83 3d e3 0d 00 00 	cmpq   $0x0,0xde3(%rip)        # 100402020 <__cygwin_cxx_malloc>
   10040123c:	00 
   10040123d:	0f 84 26 02 00 00    	je     100401469 <_cygwin_crt0_common+0x349>
   100401243:	48 83 3d dd 0d 00 00 	cmpq   $0x0,0xddd(%rip)        # 100402028 <__cygwin_cxx_malloc+0x8>
   10040124a:	00 
   10040124b:	0f 84 87 02 00 00    	je     1004014d8 <_cygwin_crt0_common+0x3b8>
   100401251:	48 83 3d d7 0d 00 00 	cmpq   $0x0,0xdd7(%rip)        # 100402030 <__cygwin_cxx_malloc+0x10>
   100401258:	00 
   100401259:	0f 84 69 02 00 00    	je     1004014c8 <_cygwin_crt0_common+0x3a8>
   10040125f:	48 83 3d d1 0d 00 00 	cmpq   $0x0,0xdd1(%rip)        # 100402038 <__cygwin_cxx_malloc+0x18>
   100401266:	00 
   100401267:	0f 84 4b 02 00 00    	je     1004014b8 <_cygwin_crt0_common+0x398>
   10040126d:	48 83 3d cb 0d 00 00 	cmpq   $0x0,0xdcb(%rip)        # 100402040 <__cygwin_cxx_malloc+0x20>
   100401274:	00 
   100401275:	0f 84 2d 02 00 00    	je     1004014a8 <_cygwin_crt0_common+0x388>
   10040127b:	48 83 3d c5 0d 00 00 	cmpq   $0x0,0xdc5(%rip)        # 100402048 <__cygwin_cxx_malloc+0x28>
   100401282:	00 
   100401283:	0f 84 0f 02 00 00    	je     100401498 <_cygwin_crt0_common+0x378>
   100401289:	48 83 3d bf 0d 00 00 	cmpq   $0x0,0xdbf(%rip)        # 100402050 <__cygwin_cxx_malloc+0x30>
   100401290:	00 
   100401291:	0f 84 f1 01 00 00    	je     100401488 <_cygwin_crt0_common+0x368>
   100401297:	48 83 3d b9 0d 00 00 	cmpq   $0x0,0xdb9(%rip)        # 100402058 <__cygwin_cxx_malloc+0x38>
   10040129e:	00 
   10040129f:	0f 84 d3 01 00 00    	je     100401478 <_cygwin_crt0_common+0x358>
   1004012a5:	48 8b 15 74 0d 00 00 	mov    0xd74(%rip),%rdx        # 100402020 <__cygwin_cxx_malloc>
   1004012ac:	48 89 10             	mov    %rdx,(%rax)
   1004012af:	48 8b 15 72 0d 00 00 	mov    0xd72(%rip),%rdx        # 100402028 <__cygwin_cxx_malloc+0x8>
   1004012b6:	48 89 50 08          	mov    %rdx,0x8(%rax)
   1004012ba:	48 8b 15 6f 0d 00 00 	mov    0xd6f(%rip),%rdx        # 100402030 <__cygwin_cxx_malloc+0x10>
   1004012c1:	48 89 50 10          	mov    %rdx,0x10(%rax)
   1004012c5:	48 8b 15 6c 0d 00 00 	mov    0xd6c(%rip),%rdx        # 100402038 <__cygwin_cxx_malloc+0x18>
   1004012cc:	48 89 50 18          	mov    %rdx,0x18(%rax)
   1004012d0:	48 8b 15 69 0d 00 00 	mov    0xd69(%rip),%rdx        # 100402040 <__cygwin_cxx_malloc+0x20>
   1004012d7:	48 89 50 20          	mov    %rdx,0x20(%rax)
   1004012db:	48 8b 15 66 0d 00 00 	mov    0xd66(%rip),%rdx        # 100402048 <__cygwin_cxx_malloc+0x28>
   1004012e2:	48 89 50 28          	mov    %rdx,0x28(%rax)
   1004012e6:	48 8b 15 63 0d 00 00 	mov    0xd63(%rip),%rdx        # 100402050 <__cygwin_cxx_malloc+0x30>
   1004012ed:	48 89 50 30          	mov    %rdx,0x30(%rax)
   1004012f1:	48 8b 15 60 0d 00 00 	mov    0xd60(%rip),%rdx        # 100402058 <__cygwin_cxx_malloc+0x38>
   1004012f8:	48 89 50 38          	mov    %rdx,0x38(%rax)
   1004012fc:	31 c9                	xor    %ecx,%ecx
   1004012fe:	e8 8d 03 00 00       	call   100401690 <GetModuleHandleA>
   100401303:	48 89 83 e8 00 00 00 	mov    %rax,0xe8(%rbx)
   10040130a:	48 8d 05 ef 0c 00 00 	lea    0xcef(%rip),%rax        # 100402000 <__data_start__>
   100401311:	48 89 43 58          	mov    %rax,0x58(%rbx)
   100401315:	48 8d 05 44 0d 00 00 	lea    0xd44(%rip),%rax        # 100402060 <__data_end__>
   10040131c:	48 89 43 60          	mov    %rax,0x60(%rbx)
   100401320:	48 8d 05 d9 5c 00 00 	lea    0x5cd9(%rip),%rax        # 100407000 <__bss_start__>
   100401327:	48 89 43 68          	mov    %rax,0x68(%rbx)
   10040132b:	48 8d 05 8e 5e 00 00 	lea    0x5e8e(%rip),%rax        # 1004071c0 <__bss_end__>
   100401332:	48 89 43 70          	mov    %rax,0x70(%rbx)
   100401336:	48 8d 05 a3 1e 00 00 	lea    0x1ea3(%rip),%rax        # 1004031e0 <__RUNTIME_PSEUDO_RELOC_LIST_END__>
   10040133d:	48 89 83 20 01 00 00 	mov    %rax,0x120(%rbx)
   100401344:	48 8d 05 95 1e 00 00 	lea    0x1e95(%rip),%rax        # 1004031e0 <__RUNTIME_PSEUDO_RELOC_LIST_END__>
   10040134b:	48 89 83 28 01 00 00 	mov    %rax,0x128(%rbx)
   100401352:	48 8d 05 a7 ec ff ff 	lea    -0x1359(%rip),%rax        # 100400000 <__size_of_stack_reserve__+0x100200000>
   100401359:	48 89 83 30 01 00 00 	mov    %rax,0x130(%rbx)
   100401360:	31 c9                	xor    %ecx,%ecx
   100401362:	e8 69 02 00 00       	call   1004015d0 <_pei386_runtime_relocator>
   100401367:	b8 01 00 00 00       	mov    $0x1,%eax
   10040136c:	48 83 c4 28          	add    $0x28,%rsp
   100401370:	5b                   	pop    %rbx
   100401371:	5e                   	pop    %rsi
   100401372:	c3                   	ret
   100401373:	48 b9 00 00 00 00 5e 	movabs $0x15e00000000,%rcx
   10040137a:	01 00 00 
   10040137d:	48 89 88 f0 00 00 00 	mov    %rcx,0xf0(%rax)
   100401384:	48 8d 0d 25 03 00 00 	lea    0x325(%rip),%rcx        # 1004016b0 <__CTOR_LIST__>
   10040138b:	48 89 48 48          	mov    %rcx,0x48(%rax)
   10040138f:	48 8d 15 32 03 00 00 	lea    0x332(%rip),%rdx        # 1004016c8 <__DTOR_LIST__>
   100401396:	48 89 50 50          	mov    %rdx,0x50(%rax)
   10040139a:	48 8b 88 40 01 00 00 	mov    0x140(%rax),%rcx
   1004013a1:	48 8b 15 28 6d 00 00 	mov    0x6d28(%rip),%rdx        # 1004080d0 <__imp__impure_ptr>
   1004013a8:	48 89 0a             	mov    %rcx,(%rdx)
   1004013ab:	48 89 70 40          	mov    %rsi,0x40(%rax)
   1004013af:	48 8d 35 2a fd ff ff 	lea    -0x2d6(%rip),%rsi        # 1004010e0 <cygwin_premain0>
   1004013b6:	48 89 b0 80 00 00 00 	mov    %rsi,0x80(%rax)
   1004013bd:	48 8d 35 2c fd ff ff 	lea    -0x2d4(%rip),%rsi        # 1004010f0 <cygwin_premain1>
   1004013c4:	48 89 b0 88 00 00 00 	mov    %rsi,0x88(%rax)
   1004013cb:	48 8d 35 2e fd ff ff 	lea    -0x2d2(%rip),%rsi        # 100401100 <cygwin_premain2>
   1004013d2:	48 89 b0 90 00 00 00 	mov    %rsi,0x90(%rax)
   1004013d9:	48 8d 35 30 fd ff ff 	lea    -0x2d0(%rip),%rsi        # 100401110 <cygwin_premain3>
   1004013e0:	48 89 b0 98 00 00 00 	mov    %rsi,0x98(%rax)
   1004013e7:	48 8d 35 12 5c 00 00 	lea    0x5c12(%rip),%rsi        # 100407000 <__bss_start__>
   1004013ee:	48 89 70 38          	mov    %rsi,0x38(%rax)
   1004013f2:	48 c7 00 00 00 00 00 	movq   $0x0,(%rax)
   1004013f9:	48 be 48 01 00 00 bd 	movabs $0xbbd00000148,%rsi
   100401400:	0b 00 00 
   100401403:	48 89 70 08          	mov    %rsi,0x8(%rax)
   100401407:	c7 40 10 04 00 00 00 	movl   $0x4,0x10(%rax)
   10040140e:	48 8d 35 0b 02 00 00 	lea    0x20b(%rip),%rsi        # 100401620 <malloc>
   100401415:	48 89 70 20          	mov    %rsi,0x20(%rax)
   100401419:	48 8d 0d f0 01 00 00 	lea    0x1f0(%rip),%rcx        # 100401610 <free>
   100401420:	48 89 48 28          	mov    %rcx,0x28(%rax)
   100401424:	48 8d 35 15 02 00 00 	lea    0x215(%rip),%rsi        # 100401640 <realloc>
   10040142b:	48 89 70 30          	mov    %rsi,0x30(%rax)
   10040142f:	48 8d 15 aa 01 00 00 	lea    0x1aa(%rip),%rdx        # 1004015e0 <calloc>
   100401436:	48 89 50 78          	mov    %rdx,0x78(%rax)
   10040143a:	48 8d 0d ef 01 00 00 	lea    0x1ef(%rip),%rcx        # 100401630 <posix_memalign>
   100401441:	48 89 88 18 01 00 00 	mov    %rcx,0x118(%rax)
   100401448:	48 85 c0             	test   %rax,%rax
   10040144b:	0f 84 ab fe ff ff    	je     1004012fc <_cygwin_crt0_common+0x1dc>
   100401451:	48 89 c3             	mov    %rax,%rbx
   100401454:	48 8b 80 e0 00 00 00 	mov    0xe0(%rax),%rax
   10040145b:	48 85 c0             	test   %rax,%rax
   10040145e:	0f 85 c3 fd ff ff    	jne    100401227 <_cygwin_crt0_common+0x107>
   100401464:	e9 93 fe ff ff       	jmp    1004012fc <_cygwin_crt0_common+0x1dc>
   100401469:	48 8b 10             	mov    (%rax),%rdx
   10040146c:	48 89 15 ad 0b 00 00 	mov    %rdx,0xbad(%rip)        # 100402020 <__cygwin_cxx_malloc>
   100401473:	e9 cb fd ff ff       	jmp    100401243 <_cygwin_crt0_common+0x123>
   100401478:	48 8b 50 38          	mov    0x38(%rax),%rdx
   10040147c:	48 89 15 d5 0b 00 00 	mov    %rdx,0xbd5(%rip)        # 100402058 <__cygwin_cxx_malloc+0x38>
   100401483:	e9 1d fe ff ff       	jmp    1004012a5 <_cygwin_crt0_common+0x185>
   100401488:	48 8b 50 30          	mov    0x30(%rax),%rdx
   10040148c:	48 89 15 bd 0b 00 00 	mov    %rdx,0xbbd(%rip)        # 100402050 <__cygwin_cxx_malloc+0x30>
   100401493:	e9 ff fd ff ff       	jmp    100401297 <_cygwin_crt0_common+0x177>
   100401498:	48 8b 50 28          	mov    0x28(%rax),%rdx
   10040149c:	48 89 15 a5 0b 00 00 	mov    %rdx,0xba5(%rip)        # 100402048 <__cygwin_cxx_malloc+0x28>
   1004014a3:	e9 e1 fd ff ff       	jmp    100401289 <_cygwin_crt0_common+0x169>
   1004014a8:	48 8b 50 20          	mov    0x20(%rax),%rdx
   1004014ac:	48 89 15 8d 0b 00 00 	mov    %rdx,0xb8d(%rip)        # 100402040 <__cygwin_cxx_malloc+0x20>
   1004014b3:	e9 c3 fd ff ff       	jmp    10040127b <_cygwin_crt0_common+0x15b>
   1004014b8:	48 8b 50 18          	mov    0x18(%rax),%rdx
   1004014bc:	48 89 15 75 0b 00 00 	mov    %rdx,0xb75(%rip)        # 100402038 <__cygwin_cxx_malloc+0x18>
   1004014c3:	e9 a5 fd ff ff       	jmp    10040126d <_cygwin_crt0_common+0x14d>
   1004014c8:	48 8b 50 10          	mov    0x10(%rax),%rdx
   1004014cc:	48 89 15 5d 0b 00 00 	mov    %rdx,0xb5d(%rip)        # 100402030 <__cygwin_cxx_malloc+0x10>
   1004014d3:	e9 87 fd ff ff       	jmp    10040125f <_cygwin_crt0_common+0x13f>
   1004014d8:	48 8b 50 08          	mov    0x8(%rax),%rdx
   1004014dc:	48 89 15 45 0b 00 00 	mov    %rdx,0xb45(%rip)        # 100402028 <__cygwin_cxx_malloc+0x8>
   1004014e3:	e9 69 fd ff ff       	jmp    100401251 <_cygwin_crt0_common+0x131>
   1004014e8:	90                   	nop
   1004014e9:	90                   	nop
   1004014ea:	90                   	nop
   1004014eb:	90                   	nop
   1004014ec:	90                   	nop
   1004014ed:	90                   	nop
   1004014ee:	90                   	nop
   1004014ef:	90                   	nop

00000001004014f0 <__dllMain>:
   1004014f0:	4c 8b 05 29 5b 00 00 	mov    0x5b29(%rip),%r8        # 100407020 <storedPtr>
   1004014f7:	8b 15 2b 5b 00 00    	mov    0x5b2b(%rip),%edx        # 100407028 <storedReason>
   1004014fd:	48 8b 0d 2c 5b 00 00 	mov    0x5b2c(%rip),%rcx        # 100407030 <storedHandle>
   100401504:	e9 b7 00 00 00       	jmp    1004015c0 <DllMain>

0000000100401509 <_cygwin_dll_entry>:
   100401509:	48 83 ec 38          	sub    $0x38,%rsp
   10040150d:	83 fa 02             	cmp    $0x2,%edx
   100401510:	74 6b                	je     10040157d <_cygwin_dll_entry+0x74>
   100401512:	77 4c                	ja     100401560 <_cygwin_dll_entry+0x57>
   100401514:	85 d2                	test   %edx,%edx
   100401516:	74 73                	je     10040158b <_cygwin_dll_entry+0x82>
   100401518:	48 89 0d 11 5b 00 00 	mov    %rcx,0x5b11(%rip)        # 100407030 <storedHandle>
   10040151f:	c7 05 ff 5a 00 00 01 	movl   $0x1,0x5aff(%rip)        # 100407028 <storedReason>
   100401526:	00 00 00 
   100401529:	4c 89 05 f0 5a 00 00 	mov    %r8,0x5af0(%rip)        # 100407020 <storedPtr>
   100401530:	31 c0                	xor    %eax,%eax
   100401532:	4d 85 c0             	test   %r8,%r8
   100401535:	0f 94 c0             	sete   %al
   100401538:	89 05 d2 5a 00 00    	mov    %eax,0x5ad2(%rip)        # 100407010 <__dynamically_loaded>
   10040153e:	48 8d 15 ab ff ff ff 	lea    -0x55(%rip),%rdx        # 1004014f0 <__dllMain>
   100401545:	e8 06 01 00 00       	call   100401650 <cygwin_attach_dll>
   10040154a:	48 89 05 c7 5a 00 00 	mov    %rax,0x5ac7(%rip)        # 100407018 <dll_index>
   100401551:	48 83 f8 ff          	cmp    $0xffffffffffffffff,%rax
   100401555:	0f 95 c0             	setne  %al
   100401558:	0f b6 c0             	movzbl %al,%eax
   10040155b:	48 83 c4 38          	add    $0x38,%rsp
   10040155f:	c3                   	ret
   100401560:	83 fa 03             	cmp    $0x3,%edx
   100401563:	75 0e                	jne    100401573 <_cygwin_dll_entry+0x6a>
   100401565:	ba 03 00 00 00       	mov    $0x3,%edx
   10040156a:	48 83 c4 38          	add    $0x38,%rsp
   10040156e:	e9 4d 00 00 00       	jmp    1004015c0 <DllMain>
   100401573:	b8 01 00 00 00       	mov    $0x1,%eax
   100401578:	48 83 c4 38          	add    $0x38,%rsp
   10040157c:	c3                   	ret
   10040157d:	ba 02 00 00 00       	mov    $0x2,%edx
   100401582:	48 83 c4 38          	add    $0x38,%rsp
   100401586:	e9 35 00 00 00       	jmp    1004015c0 <DllMain>
   10040158b:	31 d2                	xor    %edx,%edx
   10040158d:	e8 2e 00 00 00       	call   1004015c0 <DllMain>
   100401592:	85 c0                	test   %eax,%eax
   100401594:	74 c5                	je     10040155b <_cygwin_dll_entry+0x52>
   100401596:	89 44 24 2c          	mov    %eax,0x2c(%rsp)
   10040159a:	48 8b 0d 77 5a 00 00 	mov    0x5a77(%rip),%rcx        # 100407018 <dll_index>
   1004015a1:	e8 4a 00 00 00       	call   1004015f0 <cygwin_detach_dll>
   1004015a6:	48 c7 05 67 5a 00 00 	movq   $0xffffffffffffffff,0x5a67(%rip)        # 100407018 <dll_index>
   1004015ad:	ff ff ff ff 
   1004015b1:	8b 44 24 2c          	mov    0x2c(%rsp),%eax
   1004015b5:	eb a4                	jmp    10040155b <_cygwin_dll_entry+0x52>
   1004015b7:	90                   	nop
   1004015b8:	90                   	nop
   1004015b9:	90                   	nop
   1004015ba:	90                   	nop
   1004015bb:	90                   	nop
   1004015bc:	90                   	nop
   1004015bd:	90                   	nop
   1004015be:	90                   	nop
   1004015bf:	90                   	nop

00000001004015c0 <DllMain>:
   1004015c0:	b8 01 00 00 00       	mov    $0x1,%eax
   1004015c5:	c3                   	ret
   1004015c6:	90                   	nop
   1004015c7:	90                   	nop
   1004015c8:	90                   	nop
   1004015c9:	90                   	nop
   1004015ca:	90                   	nop
   1004015cb:	90                   	nop
   1004015cc:	90                   	nop
   1004015cd:	90                   	nop
   1004015ce:	90                   	nop
   1004015cf:	90                   	nop

00000001004015d0 <_pei386_runtime_relocator>:
   1004015d0:	c3                   	ret
   1004015d1:	90                   	nop
   1004015d2:	90                   	nop
   1004015d3:	90                   	nop
   1004015d4:	90                   	nop
   1004015d5:	90                   	nop
   1004015d6:	90                   	nop
   1004015d7:	90                   	nop
   1004015d8:	90                   	nop
   1004015d9:	90                   	nop
   1004015da:	90                   	nop
   1004015db:	90                   	nop
   1004015dc:	90                   	nop
   1004015dd:	90                   	nop
   1004015de:	90                   	nop
   1004015df:	90                   	nop

00000001004015e0 <calloc>:
   1004015e0:	ff 25 f2 6a 00 00    	jmp    *0x6af2(%rip)        # 1004080d8 <__imp_calloc>
   1004015e6:	90                   	nop
   1004015e7:	90                   	nop
   1004015e8:	90                   	nop
   1004015e9:	90                   	nop
   1004015ea:	90                   	nop
   1004015eb:	90                   	nop
   1004015ec:	90                   	nop
   1004015ed:	90                   	nop
   1004015ee:	90                   	nop
   1004015ef:	90                   	nop

00000001004015f0 <cygwin_detach_dll>:
   1004015f0:	ff 25 ea 6a 00 00    	jmp    *0x6aea(%rip)        # 1004080e0 <__imp_cygwin_detach_dll>
   1004015f6:	90                   	nop
   1004015f7:	90                   	nop
   1004015f8:	90                   	nop
   1004015f9:	90                   	nop
   1004015fa:	90                   	nop
   1004015fb:	90                   	nop
   1004015fc:	90                   	nop
   1004015fd:	90                   	nop
   1004015fe:	90                   	nop
   1004015ff:	90                   	nop

0000000100401600 <cygwin_internal>:
   100401600:	ff 25 e2 6a 00 00    	jmp    *0x6ae2(%rip)        # 1004080e8 <__imp_cygwin_internal>
   100401606:	90                   	nop
   100401607:	90                   	nop
   100401608:	90                   	nop
   100401609:	90                   	nop
   10040160a:	90                   	nop
   10040160b:	90                   	nop
   10040160c:	90                   	nop
   10040160d:	90                   	nop
   10040160e:	90                   	nop
   10040160f:	90                   	nop

0000000100401610 <free>:
   100401610:	ff 25 e2 6a 00 00    	jmp    *0x6ae2(%rip)        # 1004080f8 <__imp_free>
   100401616:	90                   	nop
   100401617:	90                   	nop
   100401618:	90                   	nop
   100401619:	90                   	nop
   10040161a:	90                   	nop
   10040161b:	90                   	nop
   10040161c:	90                   	nop
   10040161d:	90                   	nop
   10040161e:	90                   	nop
   10040161f:	90                   	nop

0000000100401620 <malloc>:
   100401620:	ff 25 da 6a 00 00    	jmp    *0x6ada(%rip)        # 100408100 <__imp_malloc>
   100401626:	90                   	nop
   100401627:	90                   	nop
   100401628:	90                   	nop
   100401629:	90                   	nop
   10040162a:	90                   	nop
   10040162b:	90                   	nop
   10040162c:	90                   	nop
   10040162d:	90                   	nop
   10040162e:	90                   	nop
   10040162f:	90                   	nop

0000000100401630 <posix_memalign>:
   100401630:	ff 25 d2 6a 00 00    	jmp    *0x6ad2(%rip)        # 100408108 <__imp_posix_memalign>
   100401636:	90                   	nop
   100401637:	90                   	nop
   100401638:	90                   	nop
   100401639:	90                   	nop
   10040163a:	90                   	nop
   10040163b:	90                   	nop
   10040163c:	90                   	nop
   10040163d:	90                   	nop
   10040163e:	90                   	nop
   10040163f:	90                   	nop

0000000100401640 <realloc>:
   100401640:	ff 25 ca 6a 00 00    	jmp    *0x6aca(%rip)        # 100408110 <__imp_realloc>
   100401646:	90                   	nop
   100401647:	90                   	nop
   100401648:	90                   	nop
   100401649:	90                   	nop
   10040164a:	90                   	nop
   10040164b:	90                   	nop
   10040164c:	90                   	nop
   10040164d:	90                   	nop
   10040164e:	90                   	nop
   10040164f:	90                   	nop

0000000100401650 <cygwin_attach_dll>:
   100401650:	56                   	push   %rsi
   100401651:	53                   	push   %rbx
   100401652:	48 83 ec 28          	sub    $0x28,%rsp
   100401656:	48 89 cb             	mov    %rcx,%rbx
   100401659:	48 89 d1             	mov    %rdx,%rcx
   10040165c:	48 8d 35 dd 59 00 00 	lea    0x59dd(%rip),%rsi        # 100407040 <u.0>
   100401663:	48 89 f2             	mov    %rsi,%rdx
   100401666:	e8 b5 fa ff ff       	call   100401120 <_cygwin_crt0_common>
   10040166b:	48 89 f2             	mov    %rsi,%rdx
   10040166e:	48 89 d9             	mov    %rbx,%rcx
   100401671:	48 83 c4 28          	add    $0x28,%rsp
   100401675:	5b                   	pop    %rbx
   100401676:	5e                   	pop    %rsi
   100401677:	e9 04 00 00 00       	jmp    100401680 <dll_dllcrt0>
   10040167c:	90                   	nop
   10040167d:	90                   	nop
   10040167e:	90                   	nop
   10040167f:	90                   	nop

0000000100401680 <dll_dllcrt0>:
   100401680:	ff 25 6a 6a 00 00    	jmp    *0x6a6a(%rip)        # 1004080f0 <__imp_dll_dllcrt0>
   100401686:	90                   	nop
   100401687:	90                   	nop
   100401688:	90                   	nop
   100401689:	90                   	nop
   10040168a:	90                   	nop
   10040168b:	90                   	nop
   10040168c:	90                   	nop
   10040168d:	90                   	nop
   10040168e:	90                   	nop
   10040168f:	90                   	nop

0000000100401690 <GetModuleHandleA>:
   100401690:	ff 25 8a 6a 00 00    	jmp    *0x6a8a(%rip)        # 100408120 <__imp_GetModuleHandleA>
   100401696:	90                   	nop
   100401697:	90                   	nop
   100401698:	0f 1f 84 00 00 00 00 	nopl   0x0(%rax,%rax,1)
   10040169f:	00 

00000001004016a0 <register_frame_ctor>:
   1004016a0:	e9 ab f9 ff ff       	jmp    100401050 <__gcc_register_frame>
   1004016a5:	90                   	nop
   1004016a6:	90                   	nop
   1004016a7:	90                   	nop
   1004016a8:	90                   	nop
   1004016a9:	90                   	nop
   1004016aa:	90                   	nop
   1004016ab:	90                   	nop
   1004016ac:	90                   	nop
   1004016ad:	90                   	nop
   1004016ae:	90                   	nop
   1004016af:	90                   	nop

00000001004016b0 <__CTOR_LIST__>:
   1004016b0:	ff                   	(bad)
   1004016b1:	ff                   	(bad)
   1004016b2:	ff                   	(bad)
   1004016b3:	ff                   	(bad)
   1004016b4:	ff                   	(bad)
   1004016b5:	ff                   	(bad)
   1004016b6:	ff                   	(bad)
   1004016b7:	ff                   	.byte 0xff

00000001004016b8 <.ctors.65535>:
   1004016b8:	a0 16 40 00 01 00 00 	movabs 0x1004016,%al
   1004016bf:	00 00 
   1004016c1:	00 00                	add    %al,(%rax)
   1004016c3:	00 00                	add    %al,(%rax)
   1004016c5:	00 00                	add    %al,(%rax)
	...

00000001004016c8 <__DTOR_LIST__>:
   1004016c8:	ff                   	(bad)
   1004016c9:	ff                   	(bad)
   1004016ca:	ff                   	(bad)
   1004016cb:	ff                   	(bad)
   1004016cc:	ff                   	(bad)
   1004016cd:	ff                   	(bad)
   1004016ce:	ff                   	(bad)
   1004016cf:	ff 00                	incl   (%rax)
   1004016d1:	00 00                	add    %al,(%rax)
   1004016d3:	00 00                	add    %al,(%rax)
   1004016d5:	00 00                	add    %al,(%rax)
	...
